target datalayout = "e-m:e-p270:32:32-p271:32:32-p272:64:64-i64:64-i128:128-f80:128-n8:16:32:64-S128"
target triple = "x86_64-pc-linux-gnu"

@.str.5 = private unnamed_addr constant [13 x i8] c"lexing error\00", align 1
@.str.6 = private unnamed_addr constant [8 x i8] c"'build'\00", align 1
@.str.7 = private unnamed_addr constant [4 x i8] c"':'\00", align 1
@.str.8 = private unnamed_addr constant [10 x i8] c"'default'\00", align 1
@.str.9 = private unnamed_addr constant [4 x i8] c"'='\00", align 1
@.str.10 = private unnamed_addr constant [11 x i8] c"identifier\00", align 1
@.str.11 = private unnamed_addr constant [10 x i8] c"'include'\00", align 1
@.str.12 = private unnamed_addr constant [7 x i8] c"indent\00", align 1
@.str.13 = private unnamed_addr constant [8 x i8] c"newline\00", align 1
@.str.14 = private unnamed_addr constant [5 x i8] c"'||'\00", align 1
@.str.15 = private unnamed_addr constant [4 x i8] c"'|'\00", align 1
@.str.16 = private unnamed_addr constant [5 x i8] c"'|@'\00", align 1
@.str.17 = private unnamed_addr constant [7 x i8] c"'pool'\00", align 1
@.str.18 = private unnamed_addr constant [7 x i8] c"'rule'\00", align 1
@.str.19 = private unnamed_addr constant [11 x i8] c"'subninja'\00", align 1
@.str.20 = private unnamed_addr constant [4 x i8] c"eof\00", align 1

; Function Attrs: mustprogress nounwind uwtable
define dso_local noundef ptr @_ZN5Lexer9TokenNameENS_5TokenE(i32 noundef %0) #3 align 2 {
  %2 = alloca ptr, align 8
  %3 = alloca i32, align 4
  store i32 %0, ptr %3, align 4, !tbaa !37
  %4 = load i32, ptr %3, align 4, !tbaa !37
  switch i32 %4, label %21 [
    i32 0, label %5
    i32 1, label %6
    i32 2, label %7
    i32 3, label %8
    i32 4, label %9
    i32 5, label %10
    i32 6, label %11
    i32 7, label %12
    i32 8, label %13
    i32 10, label %14
    i32 9, label %15
    i32 11, label %16
    i32 12, label %17
    i32 13, label %18
    i32 14, label %19
    i32 15, label %20
  ]

5:                                                ; preds = %1
  store ptr @.str.5, ptr %2, align 8
  br label %22

6:                                                ; preds = %1
  store ptr @.str.6, ptr %2, align 8
  br label %22

7:                                                ; preds = %1
  store ptr @.str.7, ptr %2, align 8
  br label %22

8:                                                ; preds = %1
  store ptr @.str.8, ptr %2, align 8
  br label %22

9:                                                ; preds = %1
  store ptr @.str.9, ptr %2, align 8
  br label %22

10:                                               ; preds = %1
  store ptr @.str.10, ptr %2, align 8
  br label %22

11:                                               ; preds = %1
  store ptr @.str.11, ptr %2, align 8
  br label %22

12:                                               ; preds = %1
  store ptr @.str.12, ptr %2, align 8
  br label %22

13:                                               ; preds = %1
  store ptr @.str.13, ptr %2, align 8
  br label %22

14:                                               ; preds = %1
  store ptr @.str.14, ptr %2, align 8
  br label %22

15:                                               ; preds = %1
  store ptr @.str.15, ptr %2, align 8
  br label %22

16:                                               ; preds = %1
  store ptr @.str.16, ptr %2, align 8
  br label %22

17:                                               ; preds = %1
  store ptr @.str.17, ptr %2, align 8
  br label %22

18:                                               ; preds = %1
  store ptr @.str.18, ptr %2, align 8
  br label %22

19:                                               ; preds = %1
  store ptr @.str.19, ptr %2, align 8
  br label %22

20:                                               ; preds = %1
  store ptr @.str.20, ptr %2, align 8
  br label %22

21:                                               ; preds = %1
  store ptr null, ptr %2, align 8
  br label %22

22:                                               ; preds = %21, %20, %19, %18, %17, %16, %15, %14, %13, %12, %11, %10, %9, %8, %7, %6, %5
  %23 = load ptr, ptr %2, align 8
  ret ptr %23
}